target datalayout = "e-m:e-p270:32:32-p271:32:32-p272:64:64-i64:64-i128:128-f80:128-n8:16:32:64-S128"
target triple = "x86_64-pc-linux-gnu"

%"struct.vcpkg::LocalizedString" = type { %"class.std::__cxx11::basic_string" }
%"class.std::__cxx11::basic_string" = type { %"struct.std::__cxx11::basic_string<char>::_Alloc_hider", i64, %union.anon.1 }
%"struct.std::__cxx11::basic_string<char>::_Alloc_hider" = type { ptr }
%union.anon.1 = type { i64, [8 x i8] }
%"struct.vcpkg::RegistryEntry" = type { ptr }
%"struct.vcpkg::ExpectedT.366" = type <{ %union.anon.367, i8, [7 x i8] }>
%union.anon.367 = type { %"struct.vcpkg::LocalizedString" }
%"struct.vcpkg::Span.369" = type { ptr, i64 }
%"struct.vcpkg::ExpectedHolder.368" = type { %"struct.vcpkg::Span.369" }
%"struct.std::_Vector_base.384" = type { %"struct.std::_Vector_base<vcpkg::Path, std::allocator<vcpkg::Path>>::_Vector_impl" }
%"struct.std::_Vector_base<vcpkg::Path, std::allocator<vcpkg::Path>>::_Vector_impl" = type { %"struct.std::_Vector_base<vcpkg::Path, std::allocator<vcpkg::Path>>::_Vector_impl_data" }
%"struct.std::_Vector_base<vcpkg::Path, std::allocator<vcpkg::Path>>::_Vector_impl_data" = type { ptr, ptr, ptr }
%"class.std::vector.383" = type { %"struct.std::_Vector_base.384" }
%"class.std::vector.487" = type { %"struct.std::_Vector_base.488" }
%"struct.std::_Vector_base.488" = type { %"struct.std::_Vector_base<vcpkg::Version, std::allocator<vcpkg::Version>>::_Vector_impl" }
%"struct.std::_Vector_base<vcpkg::Version, std::allocator<vcpkg::Version>>::_Vector_impl" = type { %"struct.std::_Vector_base<vcpkg::Version, std::allocator<vcpkg::Version>>::_Vector_impl_data" }
%"struct.std::_Vector_base<vcpkg::Version, std::allocator<vcpkg::Version>>::_Vector_impl_data" = type { ptr, ptr, ptr }
%"struct.(anonymous namespace)::FilesystemRegistryEntry" = type { %"struct.vcpkg::RegistryEntry", %"class.std::__cxx11::basic_string", %"class.std::vector.487", %"class.std::vector.383" }

; Function Attrs: mustprogress nounwind uwtable
define linkonce_odr dso_local noundef ptr @_ZNKSt6vectorIN5vcpkg7VersionESaIS1_EE11_M_data_ptrIS1_EEPT_S6_(ptr noundef nonnull align 8 dereferenceable(24) %0, ptr noundef %1) #1 comdat align 2 {
  %3 = alloca ptr, align 8
  %4 = alloca ptr, align 8
  store ptr %0, ptr %3, align 8
  store ptr %1, ptr %4, align 8
  %5 = load ptr, ptr %4, align 8
  ret ptr %5
}

; Function Attrs: noreturn nounwind uwtable
define linkonce_odr hidden void @__clang_call_terminate(ptr noundef %0) #8 comdat {
  %2 = call ptr @__cxa_begin_catch(ptr %0) #2
  call void @_ZSt9terminatev() #19
  unreachable
}

; Function Attrs: mustprogress nounwind uwtable
define linkonce_odr dso_local void @_ZN5vcpkg14ExpectedHolderINS_4SpanIKNS_7VersionEEEEC2IS4_TnNSt9enable_ifIXntsr3stdE9is_same_vIS5_NSt9remove_cvINSt16remove_referenceIT_E4typeEE4typeEEEiE4typeELi0EEEOSA_(ptr noundef nonnull align 8 dereferenceable(16) %0, ptr noundef nonnull align 8 dereferenceable(16) %1) unnamed_addr #1 comdat align 2 {
  %3 = alloca ptr, align 8
  %4 = alloca ptr, align 8
  store ptr %0, ptr %3, align 8
  store ptr %1, ptr %4, align 8
  %5 = load ptr, ptr %3, align 8
  %6 = getelementptr inbounds %"struct.vcpkg::ExpectedHolder.368", ptr %5, i32 0, i32 0
  %7 = load ptr, ptr %4, align 8
  call void @llvm.memcpy.p0.p0.i64(ptr align 8 %6, ptr align 8 %7, i64 16, i1 false)
  ret void
}

; Function Attrs: mustprogress nounwind uwtable
define linkonce_odr dso_local void @_ZN5vcpkg4SpanIKNS_7VersionEEC2EPS2_m(ptr noundef nonnull align 8 dereferenceable(16) %0, ptr noundef %1, i64 noundef %2) unnamed_addr #1 comdat align 2 {
  %4 = alloca ptr, align 8
  %5 = alloca ptr, align 8
  %6 = alloca i64, align 8
  store ptr %0, ptr %4, align 8
  store ptr %1, ptr %5, align 8
  store i64 %2, ptr %6, align 8
  %7 = load ptr, ptr %4, align 8
  %8 = getelementptr inbounds %"struct.vcpkg::Span.369", ptr %7, i32 0, i32 0
  %9 = load ptr, ptr %5, align 8
  store ptr %9, ptr %8, align 8
  %10 = getelementptr inbounds %"struct.vcpkg::Span.369", ptr %7, i32 0, i32 1
  %11 = load i64, ptr %6, align 8
  store i64 %11, ptr %10, align 8
  ret void
}

; Function Attrs: mustprogress nounwind uwtable
define linkonce_odr dso_local noundef i64 @_ZNKSt6vectorIN5vcpkg7VersionESaIS1_EE4sizeEv(ptr noundef nonnull align 8 dereferenceable(24) %0) #1 comdat align 2 {
  %2 = alloca ptr, align 8
  store ptr %0, ptr %2, align 8
  %3 = load ptr, ptr %2, align 8
  %4 = getelementptr inbounds %"struct.std::_Vector_base.488", ptr %3, i32 0, i32 0
  %5 = getelementptr inbounds %"struct.std::_Vector_base<vcpkg::Version, std::allocator<vcpkg::Version>>::_Vector_impl_data", ptr %4, i32 0, i32 1
  %6 = load ptr, ptr %5, align 8
  %7 = getelementptr inbounds %"struct.std::_Vector_base.488", ptr %3, i32 0, i32 0
  %8 = getelementptr inbounds %"struct.std::_Vector_base<vcpkg::Version, std::allocator<vcpkg::Version>>::_Vector_impl_data", ptr %7, i32 0, i32 0
  %9 = load ptr, ptr %8, align 8
  %10 = ptrtoint ptr %6 to i64
  %11 = ptrtoint ptr %9 to i64
  %12 = sub i64 %10, %11
  %13 = sdiv exact i64 %12, 40
  ret i64 %13
}

; Function Attrs: mustprogress nounwind uwtable
define linkonce_odr dso_local noundef ptr @_ZNKSt6vectorIN5vcpkg7VersionESaIS1_EE4dataEv(ptr noundef nonnull align 8 dereferenceable(24) %0) #1 comdat align 2 {
  %2 = alloca ptr, align 8
  store ptr %0, ptr %2, align 8
  %3 = load ptr, ptr %2, align 8
  %4 = getelementptr inbounds %"struct.std::_Vector_base.488", ptr %3, i32 0, i32 0
  %5 = getelementptr inbounds %"struct.std::_Vector_base<vcpkg::Version, std::allocator<vcpkg::Version>>::_Vector_impl_data", ptr %4, i32 0, i32 0
  %6 = load ptr, ptr %5, align 8
  %7 = call noundef ptr @_ZNKSt6vectorIN5vcpkg7VersionESaIS1_EE11_M_data_ptrIS1_EEPT_S6_(ptr noundef nonnull align 8 dereferenceable(24) %3, ptr noundef %6) #2
  ret ptr %7
}

; Function Attrs: mustprogress nounwind uwtable
define linkonce_odr dso_local void @_ZN5vcpkg9ExpectedTINS_4SpanIKNS_7VersionEEENS_15LocalizedStringEEC2IS4_TnNSt9enable_ifIXaasr3stdE16is_convertible_vIT_S4_Entsr3stdE9is_same_vINSt16remove_referenceIS9_E4typeES5_EEiE4typeELi0EEEOS9_(ptr noundef nonnull align 8 dereferenceable(33) %0, ptr noundef nonnull align 8 dereferenceable(16) %1) unnamed_addr #1 comdat align 2 personality ptr @__gxx_personality_v0 {
  %3 = alloca ptr, align 8
  %4 = alloca ptr, align 8
  store ptr %0, ptr %3, align 8
  store ptr %1, ptr %4, align 8
  %5 = load ptr, ptr %3, align 8
  %6 = getelementptr inbounds %"struct.vcpkg::ExpectedT.366", ptr %5, i32 0, i32 0
  %7 = load ptr, ptr %4, align 8
  invoke void @_ZN5vcpkg14ExpectedHolderINS_4SpanIKNS_7VersionEEEEC2IS4_TnNSt9enable_ifIXntsr3stdE9is_same_vIS5_NSt9remove_cvINSt16remove_referenceIT_E4typeEE4typeEEEiE4typeELi0EEEOSA_(ptr noundef nonnull align 8 dereferenceable(16) %6, ptr noundef nonnull align 8 dereferenceable(16) %7)
          to label %8 unwind label %10

8:                                                ; preds = %2
  %9 = getelementptr inbounds %"struct.vcpkg::ExpectedT.366", ptr %5, i32 0, i32 1
  store i8 0, ptr %9, align 8
  ret void

10:                                               ; preds = %2
  %11 = landingpad { ptr, i32 }
          catch ptr null
  %12 = extractvalue { ptr, i32 } %11, 0
  call void @__clang_call_terminate(ptr %12) #19
  unreachable
}

; Function Attrs: mustprogress nounwind uwtable
define linkonce_odr dso_local void @_ZN5vcpkg4SpanIKNS_7VersionEEC2IRKSt6vectorIS1_SaIS1_EEPS2_vEEOT_(ptr noundef nonnull align 8 dereferenceable(16) %0, ptr noundef nonnull align 8 dereferenceable(24) %1) unnamed_addr #1 comdat align 2 {
  %3 = alloca ptr, align 8
  %4 = alloca ptr, align 8
  store ptr %0, ptr %3, align 8
  store ptr %1, ptr %4, align 8
  %5 = load ptr, ptr %3, align 8
  %6 = load ptr, ptr %4, align 8
  %7 = call noundef ptr @_ZNKSt6vectorIN5vcpkg7VersionESaIS1_EE4dataEv(ptr noundef nonnull align 8 dereferenceable(24) %6) #2
  %8 = load ptr, ptr %4, align 8
  %9 = call noundef i64 @_ZNKSt6vectorIN5vcpkg7VersionESaIS1_EE4sizeEv(ptr noundef nonnull align 8 dereferenceable(24) %8) #2
  call void @_ZN5vcpkg4SpanIKNS_7VersionEEC2EPS2_m(ptr noundef nonnull align 8 dereferenceable(16) %5, ptr noundef %7, i64 noundef %9) #2
  ret void
}

; Function Attrs: mustprogress nounwind uwtable
define internal void @_ZNK12_GLOBAL__N_123FilesystemRegistryEntry17get_port_versionsEv(ptr dead_on_unwind noalias writable sret(%"struct.vcpkg::ExpectedT.366") align 8 %0, ptr noundef nonnull align 8 dereferenceable(88) %1) unnamed_addr #1 align 2 {
  %3 = alloca ptr, align 8
  %4 = alloca ptr, align 8
  %5 = alloca %"struct.vcpkg::Span.369", align 8
  store ptr %0, ptr %3, align 8
  store ptr %1, ptr %4, align 8
  %6 = load ptr, ptr %4, align 8
  %7 = getelementptr inbounds %"struct.(anonymous namespace)::FilesystemRegistryEntry", ptr %6, i32 0, i32 2
  call void @_ZN5vcpkg4SpanIKNS_7VersionEEC2IRKSt6vectorIS1_SaIS1_EEPS2_vEEOT_(ptr noundef nonnull align 8 dereferenceable(16) %5, ptr noundef nonnull align 8 dereferenceable(24) %7) #2
  call void @_ZN5vcpkg9ExpectedTINS_4SpanIKNS_7VersionEEENS_15LocalizedStringEEC2IS4_TnNSt9enable_ifIXaasr3stdE16is_convertible_vIT_S4_Entsr3stdE9is_same_vINSt16remove_referenceIS9_E4typeES5_EEiE4typeELi0EEEOS9_(ptr noundef nonnull align 8 dereferenceable(33) %0, ptr noundef nonnull align 8 dereferenceable(16) %5) #2
  ret void
}