; Function Attrs: mustprogress nofree norecurse nosync nounwind willreturn memory(argmem: readwrite) uwtable
define internal void @_ZNK12_GLOBAL__N_123FilesystemRegistryEntry17get_port_versionsEv(ptr dead_on_unwind noalias nocapture writable writeonly sret(%"struct.vcpkg::ExpectedT.366") align 8 %0, ptr nocapture noundef nonnull readonly align 8 dereferenceable(88) %1) unnamed_addr #21 align 2 personality ptr @__gxx_personality_v0 {
  %3 = getelementptr inbounds i8, ptr %1, i64 40
  %4 = load ptr, ptr %3, align 8
  %5 = getelementptr inbounds i8, ptr %1, i64 48
  %6 = load ptr, ptr %5, align 8
  %7 = ptrtoint ptr %6 to i64
  %8 = ptrtoint ptr %4 to i64
  %9 = sub i64 %7, %8
  %10 = sdiv exact i64 %9, 40
  store ptr %4, ptr %0, align 8
  %.sroa.2.0..sroa_idx = getelementptr inbounds i8, ptr %0, i64 8
  store i64 %10, ptr %.sroa.2.0..sroa_idx, align 8
  %11 = getelementptr inbounds i8, ptr %0, i64 32
  store i8 0, ptr %11, align 8
  ret void
}